; Function Attrs: mustprogress nofree norecurse nosync nounwind willreturn memory(read, argmem: readwrite, inaccessiblemem: none) uwtable
define void @_ZN5arrow7compute17CumulativeOptionsC2ESt10shared_ptrINS_6ScalarEEb(ptr noundef nonnull writeonly align 8 captures(none) dereferenceable(41) initializes((0, 33), (40, 41)) %0, ptr noundef captures(none) %1, i1 noundef zeroext %2) unnamed_addr #3 align 2 personality ptr @__gxx_personality_v0 {
  %4 = zext i1 %2 to i8
  %5 = load ptr, ptr @_ZN5arrow7compute8internal12_GLOBAL__N_122kCumulativeOptionsTypeE, align 8, !tbaa !32
  %6 = getelementptr inbounds nuw i8, ptr %0, i64 8
  store ptr %5, ptr %6, align 8, !tbaa !35
  store ptr getelementptr inbounds nuw inrange(-16, 16) (i8, ptr @_ZTVN5arrow7compute17CumulativeOptionsE, i64 16), ptr %0, align 8, !tbaa !37
  %7 = getelementptr inbounds nuw i8, ptr %0, i64 16
  %8 = load ptr, ptr %1, align 8, !tbaa !94
  store ptr %8, ptr %7, align 8, !tbaa !94
  %9 = getelementptr inbounds nuw i8, ptr %0, i64 24
  store ptr null, ptr %9, align 8, !tbaa !53
  %10 = getelementptr inbounds nuw i8, ptr %1, i64 8
  %11 = load ptr, ptr %10, align 8, !tbaa !53
  store ptr null, ptr %10, align 8, !tbaa !53
  store ptr %11, ptr %9, align 8, !tbaa !53
  store ptr null, ptr %1, align 8, !tbaa !94
  %12 = getelementptr inbounds nuw i8, ptr %0, i64 32
  store i8 1, ptr %12, align 8, !tbaa !78
  %13 = getelementptr inbounds nuw i8, ptr %0, i64 40
  store i8 %4, ptr %13, align 8, !tbaa !80
  ret void
}